target datalayout = "e-m:e-p270:32:32-p271:32:32-p272:64:64-i64:64-i128:128-f80:128-n8:16:32:64-S128"
target triple = "x86_64-pc-linux-gnu"

; Function Attrs: inlinehint nounwind uwtable
define internal i32 @MEM_swap32(i32 noundef %0) #4 {
  %2 = alloca i32, align 4
  store i32 %0, ptr %2, align 4, !tbaa !43
  %3 = load i32, ptr %2, align 4, !tbaa !43
  %4 = call i32 @llvm.bswap.i32(i32 %3)
  ret i32 %4
}

; Function Attrs: inlinehint nounwind uwtable
define internal i32 @MEM_read32(ptr noundef %0) #4 {
  %2 = alloca ptr, align 8
  store ptr %0, ptr %2, align 8, !tbaa !23
  %3 = load ptr, ptr %2, align 8, !tbaa !23
  %4 = load i32, ptr %3, align 1, !tbaa !43
  ret i32 %4
}

; Function Attrs: inlinehint nounwind uwtable
define internal i32 @MEM_isLittleEndian() #4 {
  ret i32 1
}

; Function Attrs: inlinehint nounwind uwtable
define internal i32 @ZSTD_isLegacy(ptr noundef %0, i64 noundef %1) #4 {
  %3 = alloca i32, align 4
  %4 = alloca ptr, align 8
  %5 = alloca i64, align 8
  %6 = alloca i32, align 4
  %7 = alloca i32, align 4
  store ptr %0, ptr %4, align 8, !tbaa !23
  store i64 %1, ptr %5, align 8, !tbaa !24
  call void @llvm.lifetime.start.p0(i64 4, ptr %6) #11
  %8 = load i64, ptr %5, align 8, !tbaa !24
  %9 = icmp ult i64 %8, 4
  br i1 %9, label %10, label %11

10:                                               ; preds = %2
  store i32 0, ptr %3, align 4
  store i32 1, ptr %7, align 4
  br label %19

11:                                               ; preds = %2
  %12 = load ptr, ptr %4, align 8, !tbaa !23
  %13 = call i32 @MEM_readLE32(ptr noundef %12)
  store i32 %13, ptr %6, align 4, !tbaa !43
  %14 = load i32, ptr %6, align 4, !tbaa !43
  switch i32 %14, label %18 [
    i32 -47205083, label %15
    i32 -47205082, label %16
    i32 -47205081, label %17
  ]

15:                                               ; preds = %11
  store i32 5, ptr %3, align 4
  store i32 1, ptr %7, align 4
  br label %19

16:                                               ; preds = %11
  store i32 6, ptr %3, align 4
  store i32 1, ptr %7, align 4
  br label %19

17:                                               ; preds = %11
  store i32 7, ptr %3, align 4
  store i32 1, ptr %7, align 4
  br label %19

18:                                               ; preds = %11
  store i32 0, ptr %3, align 4
  store i32 1, ptr %7, align 4
  br label %19

19:                                               ; preds = %18, %17, %16, %15, %10
  call void @llvm.lifetime.end.p0(i64 4, ptr %6) #11
  %20 = load i32, ptr %3, align 4
  ret i32 %20
}

; Function Attrs: inlinehint nounwind uwtable
define internal i32 @MEM_readLE32(ptr noundef %0) #4 {
  %2 = alloca i32, align 4
  %3 = alloca ptr, align 8
  store ptr %0, ptr %3, align 8, !tbaa !23
  %4 = call i32 @MEM_isLittleEndian()
  %5 = icmp ne i32 %4, 0
  br i1 %5, label %6, label %9

6:                                                ; preds = %1
  %7 = load ptr, ptr %3, align 8, !tbaa !23
  %8 = call i32 @MEM_read32(ptr noundef %7)
  store i32 %8, ptr %2, align 4
  br label %13

9:                                                ; preds = %1
  %10 = load ptr, ptr %3, align 8, !tbaa !23
  %11 = call i32 @MEM_read32(ptr noundef %10)
  %12 = call i32 @MEM_swap32(i32 noundef %11)
  store i32 %12, ptr %2, align 4
  br label %13

13:                                               ; preds = %9, %6
  %14 = load i32, ptr %2, align 4
  ret i32 %14
}

; Function Attrs: nounwind uwtable
define i32 @ZSTD_isFrame(ptr noundef %0, i64 noundef %1) #0 {
  %3 = alloca i32, align 4
  %4 = alloca ptr, align 8
  %5 = alloca i64, align 8
  %6 = alloca i32, align 4
  %7 = alloca i32, align 4
  store ptr %0, ptr %4, align 8, !tbaa !23
  store i64 %1, ptr %5, align 8, !tbaa !24
  %8 = load i64, ptr %5, align 8, !tbaa !24
  %9 = icmp ult i64 %8, 4
  br i1 %9, label %10, label %11

10:                                               ; preds = %2
  store i32 0, ptr %3, align 4
  br label %32

11:                                               ; preds = %2
  call void @llvm.lifetime.start.p0(i64 4, ptr %6) #11
  %12 = load ptr, ptr %4, align 8, !tbaa !23
  %13 = call i32 @MEM_readLE32(ptr noundef %12)
  store i32 %13, ptr %6, align 4, !tbaa !43
  %14 = load i32, ptr %6, align 4, !tbaa !43
  %15 = icmp eq i32 %14, -47205080
  br i1 %15, label %16, label %17

16:                                               ; preds = %11
  store i32 1, ptr %3, align 4
  store i32 1, ptr %7, align 4
  br label %23

17:                                               ; preds = %11
  %18 = load i32, ptr %6, align 4, !tbaa !43
  %19 = and i32 %18, -16
  %20 = icmp eq i32 %19, 407710288
  br i1 %20, label %21, label %22

21:                                               ; preds = %17
  store i32 1, ptr %3, align 4
  store i32 1, ptr %7, align 4
  br label %23

22:                                               ; preds = %17
  store i32 0, ptr %7, align 4
  br label %23

23:                                               ; preds = %22, %21, %16
  call void @llvm.lifetime.end.p0(i64 4, ptr %6) #11
  %24 = load i32, ptr %7, align 4
  switch i32 %24, label %34 [
    i32 0, label %25
    i32 1, label %32
  ]

25:                                               ; preds = %23
  %26 = load ptr, ptr %4, align 8, !tbaa !23
  %27 = load i64, ptr %5, align 8, !tbaa !24
  %28 = call i32 @ZSTD_isLegacy(ptr noundef %26, i64 noundef %27)
  %29 = icmp ne i32 %28, 0
  br i1 %29, label %30, label %31

30:                                               ; preds = %25
  store i32 1, ptr %3, align 4
  br label %32

31:                                               ; preds = %25
  store i32 0, ptr %3, align 4
  br label %32

32:                                               ; preds = %31, %30, %23, %10
  %33 = load i32, ptr %3, align 4
  ret i32 %33

34:                                               ; preds = %23
  unreachable
}