; Function Attrs: mustprogress nofree norecurse nosync nounwind willreturn memory(argmem: read) uwtable
define range(i32 0, 2) i32 @ZSTD_isFrame(ptr noundef readonly captures(none) %0, i64 noundef %1) local_unnamed_addr #8 {
  %3 = icmp ult i64 %1, 4
  br i1 %3, label %ZSTD_isLegacy.exit, label %4

4:                                                ; preds = %2
  %.val = load i32, ptr %0, align 1, !tbaa !47
  %5 = icmp eq i32 %.val, -47205080
  %6 = and i32 %.val, -16
  %.not = icmp eq i32 %6, 407710288
  %or.cond = or i1 %5, %.not
  br i1 %or.cond, label %ZSTD_isLegacy.exit, label %7

7:                                                ; preds = %4
  %.val.off = add i32 %.val, 47205083
  %switch15 = icmp ult i32 %.val.off, 3
  %spec.select = zext i1 %switch15 to i32
  br label %ZSTD_isLegacy.exit

ZSTD_isLegacy.exit:                               ; preds = %7, %4, %2
  %.07 = phi i32 [ 0, %2 ], [ 1, %4 ], [ %spec.select, %7 ]
  ret i32 %.07
}